target datalayout = "e-m:e-p270:32:32-p271:32:32-p272:64:64-i64:64-i128:128-f80:128-n8:16:32:64-S128"
target triple = "x86_64-pc-linux-gnu"

%struct._lv_chart_t = type { %struct._lv_obj_t, %struct.lv_ll_t, %struct.lv_ll_t, [2 x i32], [2 x i32], [2 x i32], [2 x i32], i32, i32, i32, i32, i8 }
%struct._lv_obj_t = type { ptr, ptr, ptr, ptr, ptr, %struct.lv_area_t, i32, i16, i16 }
%struct.lv_area_t = type { i32, i32, i32, i32 }
%struct.lv_ll_t = type { i32, ptr, ptr }
%union.lv_style_value_t = type { ptr }

; Function Attrs: inlinehint nounwind uwtable
define internal i32 @lv_obj_get_style_pad_column(ptr noundef %0, i32 noundef %1) #3 {
  %3 = alloca ptr, align 8
  %4 = alloca i32, align 4
  %5 = alloca %union.lv_style_value_t, align 8
  store ptr %0, ptr %3, align 8, !tbaa !3
  store i32 %1, ptr %4, align 4, !tbaa !7
  call void @llvm.lifetime.start.p0(i64 8, ptr %5) #5
  %6 = load ptr, ptr %3, align 8, !tbaa !3
  %7 = load i32, ptr %4, align 4, !tbaa !7
  %8 = call ptr @lv_obj_get_style_prop(ptr noundef %6, i32 noundef %7, i8 noundef zeroext 21)
  %9 = getelementptr inbounds nuw %union.lv_style_value_t, ptr %5, i32 0, i32 0
  store ptr %8, ptr %9, align 8
  %10 = load i32, ptr %5, align 8, !tbaa !38
  call void @llvm.lifetime.end.p0(i64 8, ptr %5) #5
  ret i32 %10
}

; Function Attrs: inlinehint nounwind uwtable
define internal void @lv_area_copy(ptr noundef %0, ptr noundef %1) #3 {
  %3 = alloca ptr, align 8
  %4 = alloca ptr, align 8
  store ptr %0, ptr %3, align 8, !tbaa !3
  store ptr %1, ptr %4, align 8, !tbaa !3
  %5 = load ptr, ptr %4, align 8, !tbaa !3
  %6 = getelementptr inbounds nuw %struct.lv_area_t, ptr %5, i32 0, i32 0
  %7 = load i32, ptr %6, align 4, !tbaa !57
  %8 = load ptr, ptr %3, align 8, !tbaa !3
  %9 = getelementptr inbounds nuw %struct.lv_area_t, ptr %8, i32 0, i32 0
  store i32 %7, ptr %9, align 4, !tbaa !57
  %10 = load ptr, ptr %4, align 8, !tbaa !3
  %11 = getelementptr inbounds nuw %struct.lv_area_t, ptr %10, i32 0, i32 1
  %12 = load i32, ptr %11, align 4, !tbaa !55
  %13 = load ptr, ptr %3, align 8, !tbaa !3
  %14 = getelementptr inbounds nuw %struct.lv_area_t, ptr %13, i32 0, i32 1
  store i32 %12, ptr %14, align 4, !tbaa !55
  %15 = load ptr, ptr %4, align 8, !tbaa !3
  %16 = getelementptr inbounds nuw %struct.lv_area_t, ptr %15, i32 0, i32 2
  %17 = load i32, ptr %16, align 4, !tbaa !58
  %18 = load ptr, ptr %3, align 8, !tbaa !3
  %19 = getelementptr inbounds nuw %struct.lv_area_t, ptr %18, i32 0, i32 2
  store i32 %17, ptr %19, align 4, !tbaa !58
  %20 = load ptr, ptr %4, align 8, !tbaa !3
  %21 = getelementptr inbounds nuw %struct.lv_area_t, ptr %20, i32 0, i32 3
  %22 = load i32, ptr %21, align 4, !tbaa !56
  %23 = load ptr, ptr %3, align 8, !tbaa !3
  %24 = getelementptr inbounds nuw %struct.lv_area_t, ptr %23, i32 0, i32 3
  store i32 %22, ptr %24, align 4, !tbaa !56
  ret void
}

; Function Attrs: inlinehint nounwind uwtable
define internal i32 @lv_obj_get_style_width(ptr noundef %0, i32 noundef %1) #3 {
  %3 = alloca ptr, align 8
  %4 = alloca i32, align 4
  %5 = alloca %union.lv_style_value_t, align 8
  store ptr %0, ptr %3, align 8, !tbaa !3
  store i32 %1, ptr %4, align 4, !tbaa !7
  call void @llvm.lifetime.start.p0(i64 8, ptr %5) #5
  %6 = load ptr, ptr %3, align 8, !tbaa !3
  %7 = load i32, ptr %4, align 4, !tbaa !7
  %8 = call ptr @lv_obj_get_style_prop(ptr noundef %6, i32 noundef %7, i8 noundef zeroext 1)
  %9 = getelementptr inbounds nuw %union.lv_style_value_t, ptr %5, i32 0, i32 0
  store ptr %8, ptr %9, align 8
  %10 = load i32, ptr %5, align 8, !tbaa !38
  call void @llvm.lifetime.end.p0(i64 8, ptr %5) #5
  ret i32 %10
}

; Function Attrs: inlinehint nounwind uwtable
define internal i32 @lv_obj_get_style_line_width(ptr noundef %0, i32 noundef %1) #3 {
  %3 = alloca ptr, align 8
  %4 = alloca i32, align 4
  %5 = alloca %union.lv_style_value_t, align 8
  store ptr %0, ptr %3, align 8, !tbaa !3
  store i32 %1, ptr %4, align 4, !tbaa !7
  call void @llvm.lifetime.start.p0(i64 8, ptr %5) #5
  %6 = load ptr, ptr %3, align 8, !tbaa !3
  %7 = load i32, ptr %4, align 4, !tbaa !7
  %8 = call ptr @lv_obj_get_style_prop(ptr noundef %6, i32 noundef %7, i8 noundef zeroext 72)
  %9 = getelementptr inbounds nuw %union.lv_style_value_t, ptr %5, i32 0, i32 0
  store ptr %8, ptr %9, align 8
  %10 = load i32, ptr %5, align 8, !tbaa !38
  call void @llvm.lifetime.end.p0(i64 8, ptr %5) #5
  ret i32 %10
}

; Function Attrs: inlinehint nounwind uwtable
define internal i32 @lv_obj_get_style_pad_left(ptr noundef %0, i32 noundef %1) #3 {
  %3 = alloca ptr, align 8
  %4 = alloca i32, align 4
  %5 = alloca %union.lv_style_value_t, align 8
  store ptr %0, ptr %3, align 8, !tbaa !3
  store i32 %1, ptr %4, align 4, !tbaa !7
  call void @llvm.lifetime.start.p0(i64 8, ptr %5) #5
  %6 = load ptr, ptr %3, align 8, !tbaa !3
  %7 = load i32, ptr %4, align 4, !tbaa !7
  %8 = call ptr @lv_obj_get_style_prop(ptr noundef %6, i32 noundef %7, i8 noundef zeroext 18)
  %9 = getelementptr inbounds nuw %union.lv_style_value_t, ptr %5, i32 0, i32 0
  store ptr %8, ptr %9, align 8
  %10 = load i32, ptr %5, align 8, !tbaa !38
  call void @llvm.lifetime.end.p0(i64 8, ptr %5) #5
  ret i32 %10
}

; Function Attrs: inlinehint nounwind uwtable
define internal i32 @lv_obj_get_style_border_width(ptr noundef %0, i32 noundef %1) #3 {
  %3 = alloca ptr, align 8
  %4 = alloca i32, align 4
  %5 = alloca %union.lv_style_value_t, align 8
  store ptr %0, ptr %3, align 8, !tbaa !3
  store i32 %1, ptr %4, align 4, !tbaa !7
  call void @llvm.lifetime.start.p0(i64 8, ptr %5) #5
  %6 = load ptr, ptr %3, align 8, !tbaa !3
  %7 = load i32, ptr %4, align 4, !tbaa !7
  %8 = call ptr @lv_obj_get_style_prop(ptr noundef %6, i32 noundef %7, i8 noundef zeroext 48)
  %9 = getelementptr inbounds nuw %union.lv_style_value_t, ptr %5, i32 0, i32 0
  store ptr %8, ptr %9, align 8
  %10 = load i32, ptr %5, align 8, !tbaa !38
  call void @llvm.lifetime.end.p0(i64 8, ptr %5) #5
  ret i32 %10
}

; Function Attrs: nounwind uwtable
define internal void @invalidate_point(ptr noundef %0, i32 noundef %1) #0 {
  %3 = alloca ptr, align 8
  %4 = alloca i32, align 4
  %5 = alloca ptr, align 8
  %6 = alloca i32, align 4
  %7 = alloca i32, align 4
  %8 = alloca i32, align 4
  %9 = alloca i32, align 4
  %10 = alloca i32, align 4
  %11 = alloca i32, align 4
  %12 = alloca i32, align 4
  %13 = alloca i32, align 4
  %14 = alloca %struct.lv_area_t, align 4
  %15 = alloca %struct.lv_area_t, align 4
  %16 = alloca i32, align 4
  %17 = alloca i32, align 4
  %18 = alloca i32, align 4
  %19 = alloca i32, align 4
  store ptr %0, ptr %3, align 8, !tbaa !3
  store i32 %1, ptr %4, align 4, !tbaa !7
  call void @llvm.lifetime.start.p0(i64 8, ptr %5) #5
  %20 = load ptr, ptr %3, align 8, !tbaa !3
  store ptr %20, ptr %5, align 8, !tbaa !3
  %21 = load i32, ptr %4, align 4, !tbaa !7
  %22 = load ptr, ptr %5, align 8, !tbaa !3
  %23 = getelementptr inbounds nuw %struct._lv_chart_t, ptr %22, i32 0, i32 10
  %24 = load i32, ptr %23, align 4, !tbaa !16
  %25 = icmp uge i32 %21, %24
  br i1 %25, label %26, label %27

26:                                               ; preds = %2
  store i32 1, ptr %6, align 4
  br label %210

27:                                               ; preds = %2
  call void @llvm.lifetime.start.p0(i64 4, ptr %7) #5
  %28 = load ptr, ptr %3, align 8, !tbaa !3
  %29 = call i32 @lv_obj_get_content_width(ptr noundef %28)
  store i32 %29, ptr %7, align 4, !tbaa !7
  call void @llvm.lifetime.start.p0(i64 4, ptr %8) #5
  %30 = load ptr, ptr %3, align 8, !tbaa !3
  %31 = call i32 @lv_obj_get_scroll_left(ptr noundef %30)
  store i32 %31, ptr %8, align 4, !tbaa !7
  %32 = load ptr, ptr %5, align 8, !tbaa !3
  %33 = getelementptr inbounds nuw %struct._lv_chart_t, ptr %32, i32 0, i32 11
  %34 = load i8, ptr %33, align 8
  %35 = lshr i8 %34, 3
  %36 = and i8 %35, 1
  %37 = zext i8 %36 to i32
  %38 = icmp eq i32 %37, 0
  br i1 %38, label %39, label %41

39:                                               ; preds = %27
  %40 = load ptr, ptr %3, align 8, !tbaa !3
  call void @lv_obj_invalidate(ptr noundef %40)
  store i32 1, ptr %6, align 4
  br label %209

41:                                               ; preds = %27
  %42 = load ptr, ptr %5, align 8, !tbaa !3
  %43 = getelementptr inbounds nuw %struct._lv_chart_t, ptr %42, i32 0, i32 11
  %44 = load i8, ptr %43, align 8
  %45 = and i8 %44, 7
  %46 = zext i8 %45 to i32
  %47 = icmp eq i32 %46, 1
  br i1 %47, label %48, label %157

48:                                               ; preds = %41
  call void @llvm.lifetime.start.p0(i64 4, ptr %9) #5
  %49 = load ptr, ptr %3, align 8, !tbaa !3
  %50 = call i32 @lv_obj_get_style_border_width(ptr noundef %49, i32 noundef 0)
  store i32 %50, ptr %9, align 4, !tbaa !7
  call void @llvm.lifetime.start.p0(i64 4, ptr %10) #5
  %51 = load ptr, ptr %3, align 8, !tbaa !3
  %52 = call i32 @lv_obj_get_style_pad_left(ptr noundef %51, i32 noundef 0)
  store i32 %52, ptr %10, align 4, !tbaa !7
  call void @llvm.lifetime.start.p0(i64 4, ptr %11) #5
  %53 = load ptr, ptr %3, align 8, !tbaa !3
  %54 = getelementptr inbounds nuw %struct._lv_obj_t, ptr %53, i32 0, i32 5
  %55 = getelementptr inbounds nuw %struct.lv_area_t, ptr %54, i32 0, i32 0
  %56 = load i32, ptr %55, align 8, !tbaa !27
  %57 = load i32, ptr %10, align 4, !tbaa !7
  %58 = add nsw i32 %56, %57
  %59 = load i32, ptr %9, align 4, !tbaa !7
  %60 = add nsw i32 %58, %59
  %61 = load i32, ptr %8, align 4, !tbaa !7
  %62 = sub nsw i32 %60, %61
  store i32 %62, ptr %11, align 4, !tbaa !7
  call void @llvm.lifetime.start.p0(i64 4, ptr %12) #5
  %63 = load ptr, ptr %3, align 8, !tbaa !3
  %64 = call i32 @lv_obj_get_style_line_width(ptr noundef %63, i32 noundef 327680)
  store i32 %64, ptr %12, align 4, !tbaa !7
  call void @llvm.lifetime.start.p0(i64 4, ptr %13) #5
  %65 = load ptr, ptr %3, align 8, !tbaa !3
  %66 = call i32 @lv_obj_get_style_width(ptr noundef %65, i32 noundef 131072)
  store i32 %66, ptr %13, align 4, !tbaa !7
  call void @llvm.lifetime.start.p0(i64 16, ptr %14) #5
  %67 = load ptr, ptr %3, align 8, !tbaa !3
  %68 = getelementptr inbounds nuw %struct._lv_obj_t, ptr %67, i32 0, i32 5
  call void @lv_area_copy(ptr noundef %14, ptr noundef %68)
  %69 = load i32, ptr %12, align 4, !tbaa !7
  %70 = load i32, ptr %13, align 4, !tbaa !7
  %71 = add nsw i32 %69, %70
  %72 = getelementptr inbounds nuw %struct.lv_area_t, ptr %14, i32 0, i32 1
  %73 = load i32, ptr %72, align 4, !tbaa !55
  %74 = sub nsw i32 %73, %71
  store i32 %74, ptr %72, align 4, !tbaa !55
  %75 = load i32, ptr %12, align 4, !tbaa !7
  %76 = load i32, ptr %13, align 4, !tbaa !7
  %77 = add nsw i32 %75, %76
  %78 = getelementptr inbounds nuw %struct.lv_area_t, ptr %14, i32 0, i32 3
  %79 = load i32, ptr %78, align 4, !tbaa !56
  %80 = add nsw i32 %79, %77
  store i32 %80, ptr %78, align 4, !tbaa !56
  %81 = load i32, ptr %4, align 4, !tbaa !7
  %82 = load ptr, ptr %5, align 8, !tbaa !3
  %83 = getelementptr inbounds nuw %struct._lv_chart_t, ptr %82, i32 0, i32 10
  %84 = load i32, ptr %83, align 4, !tbaa !16
  %85 = sub i32 %84, 1
  %86 = icmp ult i32 %81, %85
  br i1 %86, label %87, label %120

87:                                               ; preds = %48
  %88 = load i32, ptr %7, align 4, !tbaa !7
  %89 = load i32, ptr %4, align 4, !tbaa !7
  %90 = mul i32 %88, %89
  %91 = load ptr, ptr %5, align 8, !tbaa !3
  %92 = getelementptr inbounds nuw %struct._lv_chart_t, ptr %91, i32 0, i32 10
  %93 = load i32, ptr %92, align 4, !tbaa !16
  %94 = sub i32 %93, 1
  %95 = udiv i32 %90, %94
  %96 = load i32, ptr %11, align 4, !tbaa !7
  %97 = add i32 %95, %96
  %98 = load i32, ptr %12, align 4, !tbaa !7
  %99 = sub i32 %97, %98
  %100 = load i32, ptr %13, align 4, !tbaa !7
  %101 = sub i32 %99, %100
  %102 = getelementptr inbounds nuw %struct.lv_area_t, ptr %14, i32 0, i32 0
  store i32 %101, ptr %102, align 4, !tbaa !57
  %103 = load i32, ptr %7, align 4, !tbaa !7
  %104 = load i32, ptr %4, align 4, !tbaa !7
  %105 = add i32 %104, 1
  %106 = mul i32 %103, %105
  %107 = load ptr, ptr %5, align 8, !tbaa !3
  %108 = getelementptr inbounds nuw %struct._lv_chart_t, ptr %107, i32 0, i32 10
  %109 = load i32, ptr %108, align 4, !tbaa !16
  %110 = sub i32 %109, 1
  %111 = udiv i32 %106, %110
  %112 = load i32, ptr %11, align 4, !tbaa !7
  %113 = add i32 %111, %112
  %114 = load i32, ptr %12, align 4, !tbaa !7
  %115 = add i32 %113, %114
  %116 = load i32, ptr %13, align 4, !tbaa !7
  %117 = add i32 %115, %116
  %118 = getelementptr inbounds nuw %struct.lv_area_t, ptr %14, i32 0, i32 2
  store i32 %117, ptr %118, align 4, !tbaa !58
  %119 = load ptr, ptr %3, align 8, !tbaa !3
  call void @lv_obj_invalidate_area(ptr noundef %119, ptr noundef %14)
  br label %120

120:                                              ; preds = %87, %48
  %121 = load i32, ptr %4, align 4, !tbaa !7
  %122 = icmp ugt i32 %121, 0
  br i1 %122, label %123, label %156

123:                                              ; preds = %120
  %124 = load i32, ptr %7, align 4, !tbaa !7
  %125 = load i32, ptr %4, align 4, !tbaa !7
  %126 = sub i32 %125, 1
  %127 = mul i32 %124, %126
  %128 = load ptr, ptr %5, align 8, !tbaa !3
  %129 = getelementptr inbounds nuw %struct._lv_chart_t, ptr %128, i32 0, i32 10
  %130 = load i32, ptr %129, align 4, !tbaa !16
  %131 = sub i32 %130, 1
  %132 = udiv i32 %127, %131
  %133 = load i32, ptr %11, align 4, !tbaa !7
  %134 = add i32 %132, %133
  %135 = load i32, ptr %12, align 4, !tbaa !7
  %136 = sub i32 %134, %135
  %137 = load i32, ptr %13, align 4, !tbaa !7
  %138 = sub i32 %136, %137
  %139 = getelementptr inbounds nuw %struct.lv_area_t, ptr %14, i32 0, i32 0
  store i32 %138, ptr %139, align 4, !tbaa !57
  %140 = load i32, ptr %7, align 4, !tbaa !7
  %141 = load i32, ptr %4, align 4, !tbaa !7
  %142 = mul i32 %140, %141
  %143 = load ptr, ptr %5, align 8, !tbaa !3
  %144 = getelementptr inbounds nuw %struct._lv_chart_t, ptr %143, i32 0, i32 10
  %145 = load i32, ptr %144, align 4, !tbaa !16
  %146 = sub i32 %145, 1
  %147 = udiv i32 %142, %146
  %148 = load i32, ptr %11, align 4, !tbaa !7
  %149 = add i32 %147, %148
  %150 = load i32, ptr %12, align 4, !tbaa !7
  %151 = add i32 %149, %150
  %152 = load i32, ptr %13, align 4, !tbaa !7
  %153 = add i32 %151, %152
  %154 = getelementptr inbounds nuw %struct.lv_area_t, ptr %14, i32 0, i32 2
  store i32 %153, ptr %154, align 4, !tbaa !58
  %155 = load ptr, ptr %3, align 8, !tbaa !3
  call void @lv_obj_invalidate_area(ptr noundef %155, ptr noundef %14)
  br label %156

156:                                              ; preds = %123, %120
  call void @llvm.lifetime.end.p0(i64 16, ptr %14) #5
  call void @llvm.lifetime.end.p0(i64 4, ptr %13) #5
  call void @llvm.lifetime.end.p0(i64 4, ptr %12) #5
  call void @llvm.lifetime.end.p0(i64 4, ptr %11) #5
  call void @llvm.lifetime.end.p0(i64 4, ptr %10) #5
  call void @llvm.lifetime.end.p0(i64 4, ptr %9) #5
  br label %208

157:                                              ; preds = %41
  %158 = load ptr, ptr %5, align 8, !tbaa !3
  %159 = getelementptr inbounds nuw %struct._lv_chart_t, ptr %158, i32 0, i32 11
  %160 = load i8, ptr %159, align 8
  %161 = and i8 %160, 7
  %162 = zext i8 %161 to i32
  %163 = icmp eq i32 %162, 2
  br i1 %163, label %164, label %205

164:                                              ; preds = %157
  call void @llvm.lifetime.start.p0(i64 16, ptr %15) #5
  call void @llvm.lifetime.start.p0(i64 4, ptr %16) #5
  %165 = load ptr, ptr %3, align 8, !tbaa !3
  %166 = call i32 @lv_obj_get_style_pad_column(ptr noundef %165, i32 noundef 0)
  store i32 %166, ptr %16, align 4, !tbaa !7
  call void @llvm.lifetime.start.p0(i64 4, ptr %17) #5
  %167 = load i32, ptr %7, align 4, !tbaa !7
  %168 = load i32, ptr %16, align 4, !tbaa !7
  %169 = add nsw i32 %167, %168
  %170 = load ptr, ptr %5, align 8, !tbaa !3
  %171 = getelementptr inbounds nuw %struct._lv_chart_t, ptr %170, i32 0, i32 10
  %172 = load i32, ptr %171, align 4, !tbaa !16
  %173 = udiv i32 %169, %172
  store i32 %173, ptr %17, align 4, !tbaa !7
  call void @llvm.lifetime.start.p0(i64 4, ptr %18) #5
  %174 = load ptr, ptr %3, align 8, !tbaa !3
  %175 = call i32 @lv_obj_get_style_border_width(ptr noundef %174, i32 noundef 0)
  store i32 %175, ptr %18, align 4, !tbaa !7
  call void @llvm.lifetime.start.p0(i64 4, ptr %19) #5
  %176 = load i32, ptr %17, align 4, !tbaa !7
  %177 = load i32, ptr %4, align 4, !tbaa !7
  %178 = mul i32 %176, %177
  store i32 %178, ptr %19, align 4, !tbaa !7
  %179 = load ptr, ptr %3, align 8, !tbaa !3
  %180 = getelementptr inbounds nuw %struct._lv_obj_t, ptr %179, i32 0, i32 5
  %181 = getelementptr inbounds nuw %struct.lv_area_t, ptr %180, i32 0, i32 0
  %182 = load i32, ptr %181, align 8, !tbaa !27
  %183 = load i32, ptr %18, align 4, !tbaa !7
  %184 = add nsw i32 %182, %183
  %185 = load ptr, ptr %3, align 8, !tbaa !3
  %186 = call i32 @lv_obj_get_style_pad_left(ptr noundef %185, i32 noundef 0)
  %187 = add nsw i32 %184, %186
  %188 = load i32, ptr %19, align 4, !tbaa !7
  %189 = add nsw i32 %188, %187
  store i32 %189, ptr %19, align 4, !tbaa !7
  %190 = load ptr, ptr %3, align 8, !tbaa !3
  call void @lv_obj_get_coords(ptr noundef %190, ptr noundef %15)
  %191 = load i32, ptr %19, align 4, !tbaa !7
  %192 = load i32, ptr %8, align 4, !tbaa !7
  %193 = sub nsw i32 %191, %192
  %194 = getelementptr inbounds nuw %struct.lv_area_t, ptr %15, i32 0, i32 0
  store i32 %193, ptr %194, align 4, !tbaa !57
  %195 = getelementptr inbounds nuw %struct.lv_area_t, ptr %15, i32 0, i32 0
  %196 = load i32, ptr %195, align 4, !tbaa !57
  %197 = load i32, ptr %17, align 4, !tbaa !7
  %198 = add nsw i32 %196, %197
  %199 = getelementptr inbounds nuw %struct.lv_area_t, ptr %15, i32 0, i32 2
  store i32 %198, ptr %199, align 4, !tbaa !58
  %200 = load i32, ptr %16, align 4, !tbaa !7
  %201 = getelementptr inbounds nuw %struct.lv_area_t, ptr %15, i32 0, i32 0
  %202 = load i32, ptr %201, align 4, !tbaa !57
  %203 = sub nsw i32 %202, %200
  store i32 %203, ptr %201, align 4, !tbaa !57
  %204 = load ptr, ptr %3, align 8, !tbaa !3
  call void @lv_obj_invalidate_area(ptr noundef %204, ptr noundef %15)
  call void @llvm.lifetime.end.p0(i64 4, ptr %19) #5
  call void @llvm.lifetime.end.p0(i64 4, ptr %18) #5
  call void @llvm.lifetime.end.p0(i64 4, ptr %17) #5
  call void @llvm.lifetime.end.p0(i64 4, ptr %16) #5
  call void @llvm.lifetime.end.p0(i64 16, ptr %15) #5
  br label %207

205:                                              ; preds = %157
  %206 = load ptr, ptr %3, align 8, !tbaa !3
  call void @lv_obj_invalidate(ptr noundef %206)
  br label %207

207:                                              ; preds = %205, %164
  br label %208

208:                                              ; preds = %207, %156
  store i32 0, ptr %6, align 4
  br label %209

209:                                              ; preds = %208, %39
  call void @llvm.lifetime.end.p0(i64 4, ptr %8) #5
  call void @llvm.lifetime.end.p0(i64 4, ptr %7) #5
  br label %210

210:                                              ; preds = %209, %26
  call void @llvm.lifetime.end.p0(i64 8, ptr %5) #5
  %211 = load i32, ptr %6, align 4
  switch i32 %211, label %213 [
    i32 0, label %212
    i32 1, label %212
  ]

212:                                              ; preds = %210, %210
  ret void

213:                                              ; preds = %210
  unreachable
}