; Function Attrs: nounwind uwtable
define internal fastcc void @invalidate_point(ptr noundef %0, i32 noundef %1) unnamed_addr #0 {
  %3 = alloca %struct.lv_area_t, align 4
  %4 = alloca %struct.lv_area_t, align 4
  %5 = getelementptr inbounds nuw i8, ptr %0, i64 156
  %6 = load i32, ptr %5, align 4, !tbaa !15
  %.not = icmp ult i32 %1, %6
  br i1 %.not, label %7, label %89

7:                                                ; preds = %2
  %8 = tail call i32 @lv_obj_get_content_width(ptr noundef nonnull %0) #8
  %9 = tail call i32 @lv_obj_get_scroll_left(ptr noundef nonnull %0) #8
  %10 = getelementptr inbounds nuw i8, ptr %0, i64 160
  %11 = load i8, ptr %10, align 8
  %12 = and i8 %11, 8
  %13 = icmp eq i8 %12, 0
  br i1 %13, label %14, label %15

14:                                               ; preds = %7
  tail call void @lv_obj_invalidate(ptr noundef nonnull %0) #8
  br label %89

15:                                               ; preds = %7
  %16 = and i8 %11, 7
  switch i8 %16, label %88 [
    i8 1, label %17
    i8 2, label %68
  ]

17:                                               ; preds = %15
  %18 = tail call ptr @lv_obj_get_style_prop(ptr noundef nonnull %0, i32 noundef 0, i8 noundef zeroext 48) #8
  %19 = ptrtoint ptr %18 to i64
  %.sroa.0.0.extract.trunc.i = trunc i64 %19 to i32
  %20 = tail call ptr @lv_obj_get_style_prop(ptr noundef nonnull %0, i32 noundef 0, i8 noundef zeroext 18) #8
  %21 = ptrtoint ptr %20 to i64
  %.sroa.0.0.extract.trunc.i71 = trunc i64 %21 to i32
  %22 = getelementptr inbounds nuw i8, ptr %0, i64 40
  %23 = load i32, ptr %22, align 8, !tbaa !26
  %24 = sub i32 %23, %9
  %25 = add i32 %24, %.sroa.0.0.extract.trunc.i
  %26 = add i32 %25, %.sroa.0.0.extract.trunc.i71
  %27 = tail call ptr @lv_obj_get_style_prop(ptr noundef nonnull %0, i32 noundef 327680, i8 noundef zeroext 72) #8
  %28 = ptrtoint ptr %27 to i64
  %.sroa.0.0.extract.trunc.i72 = trunc i64 %28 to i32
  %29 = tail call ptr @lv_obj_get_style_prop(ptr noundef nonnull %0, i32 noundef 131072, i8 noundef zeroext 1) #8
  %30 = ptrtoint ptr %29 to i64
  %.sroa.0.0.extract.trunc.i73 = trunc i64 %30 to i32
  call void @llvm.lifetime.start.p0(i64 16, ptr nonnull %3) #8
  %31 = getelementptr inbounds nuw i8, ptr %0, i64 44
  %32 = load i32, ptr %31, align 4, !tbaa !55
  %33 = getelementptr inbounds nuw i8, ptr %3, i64 4
  %34 = getelementptr inbounds nuw i8, ptr %3, i64 8
  %35 = getelementptr inbounds nuw i8, ptr %0, i64 52
  %36 = load i32, ptr %35, align 4, !tbaa !56
  %37 = getelementptr inbounds nuw i8, ptr %3, i64 12
  %38 = add i32 %.sroa.0.0.extract.trunc.i73, %.sroa.0.0.extract.trunc.i72
  %39 = sub nsw i32 %32, %38
  store i32 %39, ptr %33, align 4, !tbaa !55
  %40 = add nsw i32 %36, %38
  store i32 %40, ptr %37, align 4, !tbaa !56
  %41 = load i32, ptr %5, align 4, !tbaa !15
  %42 = add i32 %41, -1
  %43 = icmp ult i32 %1, %42
  br i1 %43, label %44, label %54

44:                                               ; preds = %17
  %45 = mul i32 %8, %1
  %46 = udiv i32 %45, %42
  %47 = sub i32 %26, %38
  %48 = add i32 %47, %46
  store i32 %48, ptr %3, align 4, !tbaa !53
  %49 = add nuw i32 %1, 1
  %50 = mul i32 %8, %49
  %51 = udiv i32 %50, %42
  %52 = add i32 %38, %26
  %53 = add i32 %52, %51
  store i32 %53, ptr %34, align 4, !tbaa !54
  call void @lv_obj_invalidate_area(ptr noundef nonnull %0, ptr noundef nonnull %3) #8
  br label %54

54:                                               ; preds = %44, %17
  %.not70 = icmp eq i32 %1, 0
  br i1 %.not70, label %67, label %55

55:                                               ; preds = %54
  %56 = add i32 %1, -1
  %57 = mul i32 %8, %56
  %58 = load i32, ptr %5, align 4, !tbaa !15
  %59 = add i32 %58, -1
  %60 = udiv i32 %57, %59
  %61 = sub i32 %26, %38
  %62 = add i32 %61, %60
  store i32 %62, ptr %3, align 4, !tbaa !53
  %63 = mul i32 %8, %1
  %64 = udiv i32 %63, %59
  %65 = add i32 %38, %26
  %66 = add i32 %65, %64
  store i32 %66, ptr %34, align 4, !tbaa !54
  call void @lv_obj_invalidate_area(ptr noundef nonnull %0, ptr noundef nonnull %3) #8
  br label %67

67:                                               ; preds = %55, %54
  call void @llvm.lifetime.end.p0(i64 16, ptr nonnull %3) #8
  br label %89

68:                                               ; preds = %15
  call void @llvm.lifetime.start.p0(i64 16, ptr nonnull %4) #8
  %69 = tail call ptr @lv_obj_get_style_prop(ptr noundef nonnull %0, i32 noundef 0, i8 noundef zeroext 21) #8
  %70 = ptrtoint ptr %69 to i64
  %.sroa.0.0.extract.trunc.i74 = trunc i64 %70 to i32
  %71 = add nsw i32 %8, %.sroa.0.0.extract.trunc.i74
  %72 = load i32, ptr %5, align 4, !tbaa !15
  %73 = udiv i32 %71, %72
  %74 = tail call ptr @lv_obj_get_style_prop(ptr noundef nonnull %0, i32 noundef 0, i8 noundef zeroext 48) #8
  %75 = ptrtoint ptr %74 to i64
  %.sroa.0.0.extract.trunc.i75 = trunc i64 %75 to i32
  %76 = mul i32 %73, %1
  %77 = getelementptr inbounds nuw i8, ptr %0, i64 40
  %78 = load i32, ptr %77, align 8, !tbaa !26
  %79 = tail call ptr @lv_obj_get_style_prop(ptr noundef nonnull %0, i32 noundef 0, i8 noundef zeroext 18) #8
  %80 = ptrtoint ptr %79 to i64
  %.sroa.0.0.extract.trunc.i76 = trunc i64 %80 to i32
  call void @lv_obj_get_coords(ptr noundef nonnull %0, ptr noundef nonnull %4) #8
  %81 = sub i32 %76, %9
  %82 = add i32 %81, %78
  %83 = add i32 %82, %.sroa.0.0.extract.trunc.i75
  %84 = add i32 %83, %.sroa.0.0.extract.trunc.i76
  %85 = add nsw i32 %84, %73
  %86 = getelementptr inbounds nuw i8, ptr %4, i64 8
  store i32 %85, ptr %86, align 4, !tbaa !54
  %87 = sub nsw i32 %84, %.sroa.0.0.extract.trunc.i74
  store i32 %87, ptr %4, align 4, !tbaa !53
  call void @lv_obj_invalidate_area(ptr noundef nonnull %0, ptr noundef nonnull %4) #8
  call void @llvm.lifetime.end.p0(i64 16, ptr nonnull %4) #8
  br label %89

88:                                               ; preds = %15
  tail call void @lv_obj_invalidate(ptr noundef nonnull %0) #8
  br label %89

89:                                               ; preds = %14, %68, %88, %67, %2
  ret void
}